target datalayout = "e-m:e-p270:32:32-p271:32:32-p272:64:64-i64:64-i128:128-f80:128-n8:16:32:64-S128"
target triple = "x86_64-unknown-linux-gnu"

; Function Attrs: mustprogress uwtable
define hidden noundef zeroext i1 @_ZNK2qe16i_solver_context6is_varEP4exprRj(ptr noundef nonnull align 8 dereferenceable(48) %this, ptr noundef %x, ptr noundef nonnull align 4 dereferenceable(4) %idx) unnamed_addr #5 align 2 {
entry:
  %retval = alloca i1, align 1
  %this.addr = alloca ptr, align 8
  %x.addr = alloca ptr, align 8
  %idx.addr = alloca ptr, align 8
  %nv = alloca i32, align 4
  %i = alloca i32, align 4
  store ptr %this, ptr %this.addr, align 8
  store ptr %x, ptr %x.addr, align 8
  store ptr %idx, ptr %idx.addr, align 8
  %this1 = load ptr, ptr %this.addr, align 8
  %vtable = load ptr, ptr %this1, align 8
  %vfn = getelementptr inbounds ptr, ptr %vtable, i64 5
  %0 = load ptr, ptr %vfn, align 8
  %call = call noundef i32 %0(ptr noundef nonnull align 8 dereferenceable(48) %this1)
  store i32 %call, ptr %nv, align 4
  store i32 0, ptr %i, align 4
  br label %for.cond

for.cond:                                         ; preds = %for.inc, %entry
  %1 = load i32, ptr %i, align 4
  %2 = load i32, ptr %nv, align 4
  %cmp = icmp ult i32 %1, %2
  br i1 %cmp, label %for.body, label %for.end

for.body:                                         ; preds = %for.cond
  %3 = load i32, ptr %i, align 4
  %vtable2 = load ptr, ptr %this1, align 8
  %vfn3 = getelementptr inbounds ptr, ptr %vtable2, i64 6
  %4 = load ptr, ptr %vfn3, align 8
  %call4 = call noundef ptr %4(ptr noundef nonnull align 8 dereferenceable(48) %this1, i32 noundef %3)
  %5 = load ptr, ptr %x.addr, align 8
  %cmp5 = icmp eq ptr %call4, %5
  br i1 %cmp5, label %if.then, label %if.end

if.then:                                          ; preds = %for.body
  %6 = load i32, ptr %i, align 4
  %7 = load ptr, ptr %idx.addr, align 8
  store i32 %6, ptr %7, align 4
  store i1 true, ptr %retval, align 1
  br label %return

if.end:                                           ; preds = %for.body
  br label %for.inc

for.inc:                                          ; preds = %if.end
  %8 = load i32, ptr %i, align 4
  %inc = add i32 %8, 1
  store i32 %inc, ptr %i, align 4
  br label %for.cond, !llvm.loop !21

for.end:                                          ; preds = %for.cond
  store i1 false, ptr %retval, align 1
  br label %return

return:                                           ; preds = %for.end, %if.then
  %9 = load i1, ptr %retval, align 1
  ret i1 %9
}