; Function Attrs: mustprogress uwtable
define hidden noundef zeroext i1 @_ZNK2qe16i_solver_context6is_varEP4exprRj(ptr noundef nonnull align 8 dereferenceable(48) %this, ptr noundef readnone %x, ptr nocapture noundef nonnull writeonly align 4 dereferenceable(4) %idx) unnamed_addr #3 align 2 {
entry:
  %vtable = load ptr, ptr %this, align 8
  %vfn = getelementptr inbounds i8, ptr %vtable, i64 40
  %0 = load ptr, ptr %vfn, align 8
  %call = tail call noundef i32 %0(ptr noundef nonnull align 8 dereferenceable(48) %this)
  %cmp8.not = icmp eq i32 %call, 0
  br i1 %cmp8.not, label %return, label %for.body.preheader

for.body.preheader:                               ; preds = %entry
  %vtable217 = load ptr, ptr %this, align 8
  %vfn318 = getelementptr inbounds i8, ptr %vtable217, i64 48
  %1 = load ptr, ptr %vfn318, align 8
  %call419 = tail call noundef ptr %1(ptr noundef nonnull align 8 dereferenceable(48) %this, i32 noundef 0)
  %cmp520 = icmp eq ptr %call419, %x
  br i1 %cmp520, label %if.then, label %for.inc

for.body:                                         ; preds = %for.inc
  %vtable2 = load ptr, ptr %this, align 8
  %vfn3 = getelementptr inbounds i8, ptr %vtable2, i64 48
  %2 = load ptr, ptr %vfn3, align 8
  %call4 = tail call noundef ptr %2(ptr noundef nonnull align 8 dereferenceable(48) %this, i32 noundef %inc)
  %cmp5 = icmp eq ptr %call4, %x
  br i1 %cmp5, label %if.then.loopexit, label %for.inc, !llvm.loop !25

if.then.loopexit:                                 ; preds = %for.body
  %cmp.le = icmp ult i32 %inc, %call
  br label %if.then

if.then:                                          ; preds = %if.then.loopexit, %for.body.preheader
  %cmp10.lcssa = phi i1 [ true, %for.body.preheader ], [ %cmp.le, %if.then.loopexit ]
  %i.09.lcssa = phi i32 [ 0, %for.body.preheader ], [ %inc, %if.then.loopexit ]
  store i32 %i.09.lcssa, ptr %idx, align 4
  br label %return

for.inc:                                          ; preds = %for.body.preheader, %for.body
  %i.0921 = phi i32 [ %inc, %for.body ], [ 0, %for.body.preheader ]
  %inc = add nuw i32 %i.0921, 1
  %exitcond.not = icmp eq i32 %inc, %call
  br i1 %exitcond.not, label %return, label %for.body, !llvm.loop !25

return:                                           ; preds = %for.inc, %entry, %if.then
  %cmp6 = phi i1 [ %cmp10.lcssa, %if.then ], [ false, %entry ], [ false, %for.inc ]
  ret i1 %cmp6
}